	.file	"asm-offsets.c"
# GNU C89 (Ubuntu 7.5.0-3ubuntu1~18.04) version 7.5.0 (x86_64-linux-gnu)
#	compiled by GNU C version 7.5.0, GMP version 6.1.2, MPFR version 4.0.1, MPC version 1.1.0, isl version isl-0.19-GMP

# GGC heuristics: --param ggc-min-expand=100 --param ggc-min-heapsize=131072
# options passed:  -nostdinc -I ./arch/x86/include
# -I ./arch/x86/include/generated -I ./arch/x86/include/generated/uapi
# -I ./include -I ./managers -I ./managers -imultiarch x86_64-linux-gnu
# -D __KERNEL__ -D CC_HAVE_ASM_GOTO
# -isystem /usr/lib/gcc/x86_64-linux-gnu/7/include
# -include ./include/lego/kconfig.h -MD arch/x86/kernel/.asm-offsets.s.d
# arch/x86/kernel/asm-offsets.c -mno-sse -mno-mmx -mno-sse2 -mno-3dnow
# -mno-avx -m64 -mno-80387 -mno-fp-ret-in-387 -mpreferred-stack-boundary=3
# -mskip-rax-setup -mno-red-zone -mcmodel=kernel -maccumulate-outgoing-args
# -mtune=generic -march=x86-64 -auxbase-strip arch/x86/kernel/asm-offsets.s
# -g -O2 -Wall -Wundef -Wstrict-prototypes -Wno-trigraphs
# -Werror=implicit-function-declaration -Wno-format-security
# -Werror=uninitialized -Werror=maybe-uninitialized -Wno-sign-compare
# -Wno-maybe-uninitialized -Wno-frame-address -Wno-unused-but-set-variable
# -Wunused-const-variable=0 -Wdeclaration-after-statement -Wno-pointer-sign
# -Werror=implicit-int -Werror=strict-prototypes -Werror=date-time
# -Werror=incompatible-pointer-types -std=gnu90 -fno-strict-aliasing
# -fno-common -fno-pie -falign-jumps=1 -falign-loops=1 -funit-at-a-time
# -fno-asynchronous-unwind-tables -fno-delete-null-pointer-checks
# -fno-omit-frame-pointer -fno-optimize-sibling-calls
# -fno-var-tracking-assignments -fno-stack-protector -fno-strict-overflow
# -fconserve-stack -fverbose-asm --param allow-store-data-races=0
# options enabled:  -faggressive-loop-optimizations -falign-labels
# -fauto-inc-dec -fbranch-count-reg -fcaller-saves
# -fchkp-check-incomplete-type -fchkp-check-read -fchkp-check-write
# -fchkp-instrument-calls -fchkp-narrow-bounds -fchkp-optimize
# -fchkp-store-bounds -fchkp-use-static-bounds
# -fchkp-use-static-const-bounds -fchkp-use-wrappers -fcode-hoisting
# -fcombine-stack-adjustments -fcompare-elim -fcprop-registers
# -fcrossjumping -fcse-follow-jumps -fdefer-pop -fdevirtualize
# -fdevirtualize-speculatively -fdwarf2-cfi-asm -fearly-inlining
# -feliminate-unused-debug-types -fexpensive-optimizations
# -fforward-propagate -ffp-int-builtin-inexact -ffunction-cse -fgcse
# -fgcse-lm -fgnu-runtime -fgnu-unique -fguess-branch-probability
# -fhoist-adjacent-loads -fident -fif-conversion -fif-conversion2
# -findirect-inlining -finline -finline-atomics
# -finline-functions-called-once -finline-small-functions -fipa-bit-cp
# -fipa-cp -fipa-icf -fipa-icf-functions -fipa-icf-variables -fipa-profile
# -fipa-pure-const -fipa-ra -fipa-reference -fipa-sra -fipa-vrp
# -fira-hoist-pressure -fira-share-save-slots -fira-share-spill-slots
# -fisolate-erroneous-paths-dereference -fivopts -fkeep-static-consts
# -fleading-underscore -flifetime-dse -flra-remat -flto-odr-type-merging
# -fmath-errno -fmerge-constants -fmerge-debug-strings
# -fmove-loop-invariants -foptimize-strlen -fpartial-inlining -fpeephole
# -fpeephole2 -fplt -fprefetch-loop-arrays -free -freg-struct-return
# -freorder-blocks -freorder-functions -frerun-cse-after-loop
# -fsched-critical-path-heuristic -fsched-dep-count-heuristic
# -fsched-group-heuristic -fsched-interblock -fsched-last-insn-heuristic
# -fsched-rank-heuristic -fsched-spec -fsched-spec-insn-heuristic
# -fsched-stalled-insns-dep -fschedule-fusion -fschedule-insns2
# -fsemantic-interposition -fshow-column -fshrink-wrap
# -fshrink-wrap-separate -fsigned-zeros -fsplit-ivs-in-unroller
# -fsplit-wide-types -fssa-backprop -fssa-phiopt -fstdarg-opt
# -fstore-merging -fstrict-volatile-bitfields -fsync-libcalls
# -fthread-jumps -ftoplevel-reorder -ftrapping-math -ftree-bit-ccp
# -ftree-builtin-call-dce -ftree-ccp -ftree-ch -ftree-coalesce-vars
# -ftree-copy-prop -ftree-cselim -ftree-dce -ftree-dominator-opts
# -ftree-dse -ftree-forwprop -ftree-fre -ftree-loop-if-convert
# -ftree-loop-im -ftree-loop-ivcanon -ftree-loop-optimize
# -ftree-parallelize-loops= -ftree-phiprop -ftree-pre -ftree-pta
# -ftree-reassoc -ftree-scev-cprop -ftree-sink -ftree-slsr -ftree-sra
# -ftree-switch-conversion -ftree-tail-merge -ftree-ter -ftree-vrp
# -funit-at-a-time -fvar-tracking -fverbose-asm -fzero-initialized-in-bss
# -m128bit-long-double -m64 -maccumulate-outgoing-args -malign-stringops
# -mavx256-split-unaligned-load -mavx256-split-unaligned-store -mfxsr
# -mglibc -mieee-fp -mlong-double-80 -mno-fancy-math-387 -mno-red-zone
# -mno-sse4 -mpush-args -mskip-rax-setup -mtls-direct-seg-refs -mvzeroupper

	.text
.Ltext0:
	.cfi_sections	.debug_frame
	.p2align 4,,15
	.globl	GoSpurs
	.type	GoSpurs, @function
GoSpurs:
.LFB809:
	.file 1 "arch/x86/kernel/asm-offsets.c"
	.loc 1 25 0
	.cfi_startproc
	pushq	%rbp	#
	.cfi_def_cfa_offset 16
	.cfi_offset 6, -16
	movq	%rsp, %rbp	#,
	.cfi_def_cfa_register 6
# arch/x86/kernel/asm-offsets.c:26: 	OFFSET(TI_flags, thread_info, flags);
	.loc 1 26 0
#APP
# 26 "arch/x86/kernel/asm-offsets.c" 1
	
->TI_flags $8 offsetof(struct thread_info, flags)	#
# 0 "" 2
# arch/x86/kernel/asm-offsets.c:27: 	BLANK();
	.loc 1 27 0
# 27 "arch/x86/kernel/asm-offsets.c" 1
	
->
# 0 "" 2
# arch/x86/kernel/asm-offsets.c:29: 	OFFSET(TASK_threadsp, task_struct, thread.sp);
	.loc 1 29 0
# 29 "arch/x86/kernel/asm-offsets.c" 1
	
->TASK_threadsp $1376 offsetof(struct task_struct, thread.sp)	#
# 0 "" 2
# arch/x86/kernel/asm-offsets.c:30: 	OFFSET(TASK_addr_limit, task_struct, thread.addr_limit);
	.loc 1 30 0
# 30 "arch/x86/kernel/asm-offsets.c" 1
	
->TASK_addr_limit $1464 offsetof(struct task_struct, thread.addr_limit)	#
# 0 "" 2
# arch/x86/kernel/asm-offsets.c:31: 	BLANK();
	.loc 1 31 0
# 31 "arch/x86/kernel/asm-offsets.c" 1
	
->
# 0 "" 2
# arch/x86/kernel/asm-offsets.c:33: 	DEFINE(PTREGS_SIZE, sizeof(struct pt_regs));
	.loc 1 33 0
# 33 "arch/x86/kernel/asm-offsets.c" 1
	
->PTREGS_SIZE $168 sizeof(struct pt_regs)	#
# 0 "" 2
# arch/x86/kernel/asm-offsets.c:34: 	BLANK();
	.loc 1 34 0
# 34 "arch/x86/kernel/asm-offsets.c" 1
	
->
# 0 "" 2
# arch/x86/kernel/asm-offsets.c:37: 	ENTRY(bx);
	.loc 1 37 0
# 37 "arch/x86/kernel/asm-offsets.c" 1
	
->pt_regs_bx $40 offsetof(struct pt_regs, bx)	#
# 0 "" 2
# arch/x86/kernel/asm-offsets.c:38: 	ENTRY(cx);
	.loc 1 38 0
# 38 "arch/x86/kernel/asm-offsets.c" 1
	
->pt_regs_cx $88 offsetof(struct pt_regs, cx)	#
# 0 "" 2
# arch/x86/kernel/asm-offsets.c:39: 	ENTRY(dx);
	.loc 1 39 0
# 39 "arch/x86/kernel/asm-offsets.c" 1
	
->pt_regs_dx $96 offsetof(struct pt_regs, dx)	#
# 0 "" 2
# arch/x86/kernel/asm-offsets.c:40: 	ENTRY(sp);
	.loc 1 40 0
# 40 "arch/x86/kernel/asm-offsets.c" 1
	
->pt_regs_sp $152 offsetof(struct pt_regs, sp)	#
# 0 "" 2
# arch/x86/kernel/asm-offsets.c:41: 	ENTRY(bp);
	.loc 1 41 0
# 41 "arch/x86/kernel/asm-offsets.c" 1
	
->pt_regs_bp $32 offsetof(struct pt_regs, bp)	#
# 0 "" 2
# arch/x86/kernel/asm-offsets.c:42: 	ENTRY(si);
	.loc 1 42 0
# 42 "arch/x86/kernel/asm-offsets.c" 1
	
->pt_regs_si $104 offsetof(struct pt_regs, si)	#
# 0 "" 2
# arch/x86/kernel/asm-offsets.c:43: 	ENTRY(di);
	.loc 1 43 0
# 43 "arch/x86/kernel/asm-offsets.c" 1
	
->pt_regs_di $112 offsetof(struct pt_regs, di)	#
# 0 "" 2
# arch/x86/kernel/asm-offsets.c:44: 	ENTRY(r8);
	.loc 1 44 0
# 44 "arch/x86/kernel/asm-offsets.c" 1
	
->pt_regs_r8 $72 offsetof(struct pt_regs, r8)	#
# 0 "" 2
# arch/x86/kernel/asm-offsets.c:45: 	ENTRY(r9);
	.loc 1 45 0
# 45 "arch/x86/kernel/asm-offsets.c" 1
	
->pt_regs_r9 $64 offsetof(struct pt_regs, r9)	#
# 0 "" 2
# arch/x86/kernel/asm-offsets.c:46: 	ENTRY(r10);
	.loc 1 46 0
# 46 "arch/x86/kernel/asm-offsets.c" 1
	
->pt_regs_r10 $56 offsetof(struct pt_regs, r10)	#
# 0 "" 2
# arch/x86/kernel/asm-offsets.c:47: 	ENTRY(r11);
	.loc 1 47 0
# 47 "arch/x86/kernel/asm-offsets.c" 1
	
->pt_regs_r11 $48 offsetof(struct pt_regs, r11)	#
# 0 "" 2
# arch/x86/kernel/asm-offsets.c:48: 	ENTRY(r12);
	.loc 1 48 0
# 48 "arch/x86/kernel/asm-offsets.c" 1
	
->pt_regs_r12 $24 offsetof(struct pt_regs, r12)	#
# 0 "" 2
# arch/x86/kernel/asm-offsets.c:49: 	ENTRY(r13);
	.loc 1 49 0
# 49 "arch/x86/kernel/asm-offsets.c" 1
	
->pt_regs_r13 $16 offsetof(struct pt_regs, r13)	#
# 0 "" 2
# arch/x86/kernel/asm-offsets.c:50: 	ENTRY(r14);
	.loc 1 50 0
# 50 "arch/x86/kernel/asm-offsets.c" 1
	
->pt_regs_r14 $8 offsetof(struct pt_regs, r14)	#
# 0 "" 2
# arch/x86/kernel/asm-offsets.c:51: 	ENTRY(r15);
	.loc 1 51 0
# 51 "arch/x86/kernel/asm-offsets.c" 1
	
->pt_regs_r15 $0 offsetof(struct pt_regs, r15)	#
# 0 "" 2
# arch/x86/kernel/asm-offsets.c:52: 	ENTRY(flags);
	.loc 1 52 0
# 52 "arch/x86/kernel/asm-offsets.c" 1
	
->pt_regs_flags $144 offsetof(struct pt_regs, flags)	#
# 0 "" 2
# arch/x86/kernel/asm-offsets.c:53: 	BLANK();
	.loc 1 53 0
# 53 "arch/x86/kernel/asm-offsets.c" 1
	
->
# 0 "" 2
# arch/x86/kernel/asm-offsets.c:56: 	OFFSET(TSS_ist, tss_struct, x86_tss.ist);
	.loc 1 56 0
# 56 "arch/x86/kernel/asm-offsets.c" 1
	
->TSS_ist $36 offsetof(struct tss_struct, x86_tss.ist)	#
# 0 "" 2
# arch/x86/kernel/asm-offsets.c:57: 	OFFSET(TSS_sp0, tss_struct, x86_tss.sp0);
	.loc 1 57 0
# 57 "arch/x86/kernel/asm-offsets.c" 1
	
->TSS_sp0 $4 offsetof(struct tss_struct, x86_tss.sp0)	#
# 0 "" 2
# arch/x86/kernel/asm-offsets.c:58: 	BLANK();
	.loc 1 58 0
# 58 "arch/x86/kernel/asm-offsets.c" 1
	
->
# 0 "" 2
# arch/x86/kernel/asm-offsets.c:60: 	DEFINE(__NR_syscall_max, sizeof(syscalls_64) - 1);
	.loc 1 60 0
# 60 "arch/x86/kernel/asm-offsets.c" 1
	
->__NR_syscall_max $611 sizeof(syscalls_64) - 1	#
# 0 "" 2
# arch/x86/kernel/asm-offsets.c:61: 	DEFINE(NR_syscalls, sizeof(syscalls_64));
	.loc 1 61 0
# 61 "arch/x86/kernel/asm-offsets.c" 1
	
->NR_syscalls $612 sizeof(syscalls_64)	#
# 0 "" 2
# arch/x86/kernel/asm-offsets.c:62: }
	.loc 1 62 0
#NO_APP
	popq	%rbp	#
	.cfi_restore 6
	.cfi_def_cfa 7, 8
	ret
	.cfi_endproc
.LFE809:
	.size	GoSpurs, .-GoSpurs
.Letext0:
	.file 2 "./arch/x86/include/asm/types.h"
	.file 3 "./include/lego/types.h"
	.file 4 "./arch/x86/include/asm/pgtable_types.h"
	.file 5 "./arch/x86/include/asm/page_types.h"
	.file 6 "./arch/x86/include/asm/asm.h"
	.file 7 "./include/lego/irq.h"
	.file 8 "./include/lego/cputime.h"
	.file 9 "./include/lego/sections.h"
	.file 10 "./include/lego/kernel.h"
	.file 11 "./include/lego/cpumask.h"
	.file 12 "./include/lego/percpu.h"
	.file 13 "./include/lego/preempt.h"
	.file 14 "./arch/x86/include/asm/spinlock.h"
	.file 15 "./arch/x86/include/asm/alternative.h"
	.file 16 "./include/lego/spinlock.h"
	.file 17 "./arch/x86/include/asm/pgtable.h"
	.file 18 "./arch/x86/include/asm/tss.h"
	.file 19 "./arch/x86/include/asm/smp.h"
	.file 20 "./arch/x86/include/asm/desc.h"
	.file 21 "./include/lego/sched.h"
	.file 22 "./arch/x86/include/asm/current.h"
	.file 23 "./arch/x86/include/asm/processor-features.h"
	.file 24 "./arch/x86/include/asm/processor.h"
	.file 25 "./arch/x86/include/asm/fpu/types.h"
	.file 26 "./arch/x86/include/asm/thread_info.h"
	.file 27 "./arch/x86/include/asm/atomic-long.h"
	.file 28 "./include/lego/nodemask.h"
	.file 29 "./include/lego/mm_zone.h"
	.file 30 "./include/lego/rwsem.h"
	.file 31 "./include/lego/rbtree.h"
	.file 32 "./include/lego/mm_types.h"
	.file 33 "./include/lego/tracepoint.h"
	.file 34 "./include/lego/mm_debug.h"
	.file 35 "./include/lego/mm.h"
	.file 36 "./include/lego/cred.h"
	.file 37 "./include/lego/files.h"
	.file 38 "./include/lego/llist.h"
	.file 39 "./include/lego/wait.h"
	.file 40 "./include/lego/rlimit.h"
	.file 41 "./include/lego/timer.h"
	.file 42 "./arch/x86/include/asm/signal.h"
	.file 43 "./include/lego/signal.h"
	.file 44 "./arch/x86/include/asm/tsc.h"
	.file 45 "./include/processor/vnode_types.h"
	.file 46 "./include/processor/processor_types.h"
	.section	.note.GNU-stack,"",@progbits
