	.file	"bounds.c"
# GNU C89 (Ubuntu 7.5.0-3ubuntu1~18.04) version 7.5.0 (x86_64-linux-gnu)
#	compiled by GNU C version 7.5.0, GMP version 6.1.2, MPFR version 4.0.1, MPC version 1.1.0, isl version isl-0.19-GMP

# GGC heuristics: --param ggc-min-expand=100 --param ggc-min-heapsize=131072
# options passed:  -nostdinc -I ./arch/x86/include
# -I ./arch/x86/include/generated -I ./arch/x86/include/generated/uapi
# -I ./include -I ./managers -I ./managers -imultiarch x86_64-linux-gnu
# -D __KERNEL__ -D CC_HAVE_ASM_GOTO
# -isystem /usr/lib/gcc/x86_64-linux-gnu/7/include
# -include ./include/lego/kconfig.h -MD kernel/.bounds.s.d kernel/bounds.c
# -mno-sse -mno-mmx -mno-sse2 -mno-3dnow -mno-avx -m64 -mno-80387
# -mno-fp-ret-in-387 -mpreferred-stack-boundary=3 -mskip-rax-setup
# -mno-red-zone -mcmodel=kernel -maccumulate-outgoing-args -mtune=generic
# -march=x86-64 -auxbase-strip kernel/bounds.s -g -O2 -Wall -Wundef
# -Wstrict-prototypes -Wno-trigraphs -Werror=implicit-function-declaration
# -Wno-format-security -Werror=uninitialized -Werror=maybe-uninitialized
# -Wno-sign-compare -Wno-maybe-uninitialized -Wno-frame-address
# -Wno-unused-but-set-variable -Wunused-const-variable=0
# -Wdeclaration-after-statement -Wno-pointer-sign -Werror=implicit-int
# -Werror=strict-prototypes -Werror=date-time
# -Werror=incompatible-pointer-types -std=gnu90 -fno-strict-aliasing
# -fno-common -fno-pie -falign-jumps=1 -falign-loops=1 -funit-at-a-time
# -fno-asynchronous-unwind-tables -fno-delete-null-pointer-checks
# -fno-omit-frame-pointer -fno-optimize-sibling-calls
# -fno-var-tracking-assignments -fno-stack-protector -fno-strict-overflow
# -fconserve-stack -fverbose-asm --param allow-store-data-races=0
# options enabled:  -faggressive-loop-optimizations -falign-labels
# -fauto-inc-dec -fbranch-count-reg -fcaller-saves
# -fchkp-check-incomplete-type -fchkp-check-read -fchkp-check-write
# -fchkp-instrument-calls -fchkp-narrow-bounds -fchkp-optimize
# -fchkp-store-bounds -fchkp-use-static-bounds
# -fchkp-use-static-const-bounds -fchkp-use-wrappers -fcode-hoisting
# -fcombine-stack-adjustments -fcompare-elim -fcprop-registers
# -fcrossjumping -fcse-follow-jumps -fdefer-pop -fdevirtualize
# -fdevirtualize-speculatively -fdwarf2-cfi-asm -fearly-inlining
# -feliminate-unused-debug-types -fexpensive-optimizations
# -fforward-propagate -ffp-int-builtin-inexact -ffunction-cse -fgcse
# -fgcse-lm -fgnu-runtime -fgnu-unique -fguess-branch-probability
# -fhoist-adjacent-loads -fident -fif-conversion -fif-conversion2
# -findirect-inlining -finline -finline-atomics
# -finline-functions-called-once -finline-small-functions -fipa-bit-cp
# -fipa-cp -fipa-icf -fipa-icf-functions -fipa-icf-variables -fipa-profile
# -fipa-pure-const -fipa-ra -fipa-reference -fipa-sra -fipa-vrp
# -fira-hoist-pressure -fira-share-save-slots -fira-share-spill-slots
# -fisolate-erroneous-paths-dereference -fivopts -fkeep-static-consts
# -fleading-underscore -flifetime-dse -flra-remat -flto-odr-type-merging
# -fmath-errno -fmerge-constants -fmerge-debug-strings
# -fmove-loop-invariants -foptimize-strlen -fpartial-inlining -fpeephole
# -fpeephole2 -fplt -fprefetch-loop-arrays -free -freg-struct-return
# -freorder-blocks -freorder-functions -frerun-cse-after-loop
# -fsched-critical-path-heuristic -fsched-dep-count-heuristic
# -fsched-group-heuristic -fsched-interblock -fsched-last-insn-heuristic
# -fsched-rank-heuristic -fsched-spec -fsched-spec-insn-heuristic
# -fsched-stalled-insns-dep -fschedule-fusion -fschedule-insns2
# -fsemantic-interposition -fshow-column -fshrink-wrap
# -fshrink-wrap-separate -fsigned-zeros -fsplit-ivs-in-unroller
# -fsplit-wide-types -fssa-backprop -fssa-phiopt -fstdarg-opt
# -fstore-merging -fstrict-volatile-bitfields -fsync-libcalls
# -fthread-jumps -ftoplevel-reorder -ftrapping-math -ftree-bit-ccp
# -ftree-builtin-call-dce -ftree-ccp -ftree-ch -ftree-coalesce-vars
# -ftree-copy-prop -ftree-cselim -ftree-dce -ftree-dominator-opts
# -ftree-dse -ftree-forwprop -ftree-fre -ftree-loop-if-convert
# -ftree-loop-im -ftree-loop-ivcanon -ftree-loop-optimize
# -ftree-parallelize-loops= -ftree-phiprop -ftree-pre -ftree-pta
# -ftree-reassoc -ftree-scev-cprop -ftree-sink -ftree-slsr -ftree-sra
# -ftree-switch-conversion -ftree-tail-merge -ftree-ter -ftree-vrp
# -funit-at-a-time -fvar-tracking -fverbose-asm -fzero-initialized-in-bss
# -m128bit-long-double -m64 -maccumulate-outgoing-args -malign-stringops
# -mavx256-split-unaligned-load -mavx256-split-unaligned-store -mfxsr
# -mglibc -mieee-fp -mlong-double-80 -mno-fancy-math-387 -mno-red-zone
# -mno-sse4 -mpush-args -mskip-rax-setup -mtls-direct-seg-refs -mvzeroupper

	.text
.Ltext0:
	.cfi_sections	.debug_frame
	.p2align 4,,15
	.globl	wuklabisawesome
	.type	wuklabisawesome, @function
wuklabisawesome:
.LFB473:
	.file 1 "kernel/bounds.c"
	.loc 1 28 0
	.cfi_startproc
	pushq	%rbp	#
	.cfi_def_cfa_offset 16
	.cfi_offset 6, -16
	movq	%rsp, %rbp	#,
	.cfi_def_cfa_register 6
# kernel/bounds.c:30: 	DEFINE(MAX_NR_ZONES, __MAX_NR_ZONES);
	.loc 1 30 0
#APP
# 30 "kernel/bounds.c" 1
	
->MAX_NR_ZONES $4 __MAX_NR_ZONES	#
# 0 "" 2
# kernel/bounds.c:31: 	DEFINE(NR_PAGEFLAGS, __NR_PAGEFLAGS);
	.loc 1 31 0
# 31 "kernel/bounds.c" 1
	
->NR_PAGEFLAGS $10 __NR_PAGEFLAGS	#
# 0 "" 2
# kernel/bounds.c:33: 	DEFINE(NR_CPU_BITS, ilog2(CONFIG_NR_CPUS));
	.loc 1 33 0
# 33 "kernel/bounds.c" 1
	
->NR_CPU_BITS $6 ilog2(CONFIG_NR_CPUS)	#
# 0 "" 2
# kernel/bounds.c:35: 	DEFINE(SPINLOCK_SIZE, sizeof(spinlock_t));
	.loc 1 35 0
# 35 "kernel/bounds.c" 1
	
->SPINLOCK_SIZE $4 sizeof(spinlock_t)	#
# 0 "" 2
# kernel/bounds.c:36: 	DEFINE(STRUCT_PAGE_SIZE, sizeof(struct page));
	.loc 1 36 0
# 36 "kernel/bounds.c" 1
	
->STRUCT_PAGE_SIZE $64 sizeof(struct page)	#
# 0 "" 2
# kernel/bounds.c:37: }
	.loc 1 37 0
#NO_APP
	popq	%rbp	#
	.cfi_restore 6
	.cfi_def_cfa 7, 8
	ret
	.cfi_endproc
.LFE473:
	.size	wuklabisawesome, .-wuklabisawesome
.Letext0:
	.file 2 "./arch/x86/include/asm/types.h"
	.file 3 "./include/lego/types.h"
	.file 4 "./arch/x86/include/asm/asm.h"
	.file 5 "./arch/x86/include/asm/page_types.h"
	.file 6 "./arch/x86/include/asm/pgtable_types.h"
	.file 7 "./include/lego/irq.h"
	.file 8 "./include/lego/sections.h"
	.file 9 "./include/lego/kernel.h"
	.file 10 "./include/lego/cpumask.h"
	.file 11 "./include/lego/percpu.h"
	.file 12 "./include/lego/preempt.h"
	.file 13 "./arch/x86/include/asm/spinlock.h"
	.file 14 "./arch/x86/include/asm/alternative.h"
	.file 15 "./include/lego/spinlock.h"
	.file 16 "./arch/x86/include/asm/pgtable.h"
	.file 17 "./include/lego/mm_zone.h"
	.file 18 "./include/lego/page-flags.h"
	.section	.note.GNU-stack,"",@progbits
